target datalayout = "e-m:e-p270:32:32-p271:32:32-p272:64:64-i64:64-i128:128-f80:128-n8:16:32:64-S128"
target triple = "x86_64-pc-linux-gnu"

%struct.slurm_conf_t = type { i64, ptr, i16, ptr, ptr, ptr, ptr, ptr, i16, ptr, ptr, ptr, ptr, ptr, ptr, ptr, i16, ptr, ptr, ptr, ptr, i16, ptr, ptr, ptr, i64, ptr, ptr, ptr, ptr, i16, ptr, ptr, i16, i32, ptr, i32, ptr, i32, i32, ptr, ptr, i64, i64, ptr, i16, i16, ptr, i32, i32, ptr, i32, ptr, i32, i16, i16, i16, ptr, i16, i16, ptr, ptr, i32, i16, i16, ptr, i32, i16, ptr, ptr, ptr, ptr, i16, ptr, ptr, ptr, ptr, i32, ptr, ptr, ptr, ptr, i16, i16, ptr, i32, i32, i32, i16, i16, ptr, ptr, i16, ptr, ptr, i32, i32, i32, i32, i32, i64, i32, i32, i16, ptr, ptr, i32, ptr, ptr, ptr, i16, i32, ptr, ptr, i16, ptr, ptr, i32, i16, ptr, ptr, ptr, ptr, i32, i32, i16, i16, i32, ptr, i16, ptr, i32, i32, i32, i32, i32, i32, ptr, i16, ptr, ptr, i32, i16, ptr, i32, i16, i16, ptr, ptr, ptr, i16, ptr, ptr, ptr, ptr, i16, i16, ptr, i16, ptr, i16, ptr, i16, ptr, i16, ptr, ptr, ptr, ptr, i16, ptr, ptr, ptr, i32, ptr, i32, ptr, ptr, i16, ptr, ptr, i32, i16, ptr, ptr, i16, i16, ptr, i16, ptr, ptr, ptr, i32, ptr, i16, i16, ptr, ptr, ptr, ptr, ptr, ptr, ptr, ptr, i16, i32, i16, ptr, ptr, ptr, ptr, i32, ptr, ptr, ptr, i16, ptr, ptr, ptr, i16, ptr, i16, ptr, i16, i16, ptr }
%struct.job_node = type { i64, ptr }

@plugin_type = dso_local constant [22 x i8] c"jobcomp/elasticsearch\00", align 16
@jobslist = internal global ptr null, align 8
@.str.1 = private unnamed_addr constant [85 x i8] c"%s: Limit of %d enqueued jobs in memory waiting to be indexed reached. %pJ discarded\00", align 1
@.str.2 = private unnamed_addr constant [24 x i8] c"jobcomp_elasticsearch.c\00", align 1
@__func__.jobcomp_p_log_record = private unnamed_addr constant [21 x i8] c"jobcomp_p_log_record\00", align 1
@.str.3 = private unnamed_addr constant [17 x i8] c"application/json\00", align 1
@slurm_conf = external global %struct.slurm_conf_t, align 8
@.str.4 = private unnamed_addr constant [53 x i8] c"%s: %s: JOBCOMP: unable to serialize %pJ to JSON: %s\00", align 1

; Function Attrs: nounwind uwtable
define dso_local i32 @jobcomp_p_log_record(ptr noundef %0) #0 {
  %2 = alloca i32, align 4
  %3 = alloca ptr, align 8
  %4 = alloca ptr, align 8
  %5 = alloca ptr, align 8
  %6 = alloca i32, align 4
  %7 = alloca i32, align 4
  store ptr %0, ptr %3, align 8
  call void @llvm.lifetime.start.p0(i64 8, ptr %4) #8
  store ptr null, ptr %4, align 8
  call void @llvm.lifetime.start.p0(i64 8, ptr %5) #8
  store ptr null, ptr %5, align 8
  call void @llvm.lifetime.start.p0(i64 4, ptr %6) #8
  %8 = load ptr, ptr @jobslist, align 8
  %9 = call i32 @slurm_list_count(ptr noundef %8)
  %10 = icmp sgt i32 %9, 1000000
  br i1 %10, label %11, label %14

11:                                               ; preds = %1
  %12 = load ptr, ptr %3, align 8
  %13 = call i32 (ptr, ...) @slurm_error(ptr noundef @.str.1, ptr noundef @plugin_type, i32 noundef 1000000, ptr noundef %12)
  store i32 -1, ptr %2, align 4
  store i32 1, ptr %7, align 4
  br label %55

14:                                               ; preds = %1
  %15 = load ptr, ptr %3, align 8
  %16 = call ptr @jobcomp_common_job_record_to_data(ptr noundef %15)
  store ptr %16, ptr %5, align 8
  %17 = call ptr @slurm_xcalloc(i64 noundef 1, i64 noundef 16, i1 noundef zeroext true, i1 noundef zeroext false, ptr noundef @.str.2, i32 noundef 265, ptr noundef @__func__.jobcomp_p_log_record)
  store ptr %17, ptr %4, align 8
  %18 = load ptr, ptr %4, align 8
  %19 = getelementptr inbounds nuw %struct.job_node, ptr %18, i32 0, i32 1
  %20 = load ptr, ptr %5, align 8
  %21 = call i32 @slurm_serialize_g_data_to_string(ptr noundef %19, ptr noundef null, ptr noundef %20, ptr noundef @.str.3, i32 noundef 1)
  store i32 %21, ptr %6, align 4
  %22 = icmp ne i32 %21, 0
  br i1 %22, label %23, label %42

23:                                               ; preds = %14
  call void @slurm_xfree(ptr noundef %4)
  br label %24

24:                                               ; preds = %23
  %25 = load i64, ptr getelementptr inbounds nuw (%struct.slurm_conf_t, ptr @slurm_conf, i32 0, i32 42), align 8
  %26 = and i64 %25, 70368744177664
  %27 = icmp ne i64 %26, 0
  br i1 %27, label %28, label %39

28:                                               ; preds = %24
  br label %29

29:                                               ; preds = %28
  %30 = call i32 @slurm_get_log_level()
  %31 = icmp sge i32 %30, 4
  br i1 %31, label %32, label %36

32:                                               ; preds = %29
  %33 = load ptr, ptr %3, align 8
  %34 = load i32, ptr %6, align 4
  %35 = call ptr @slurm_strerror(i32 noundef %34)
  call void (i32, ptr, ...) @slurm_log_var(i32 noundef 4, ptr noundef @.str.4, ptr noundef @plugin_type, ptr noundef @__func__.jobcomp_p_log_record, ptr noundef %33, ptr noundef %35)
  br label %36

36:                                               ; preds = %32, %29
  br label %37

37:                                               ; preds = %36
  br label %38

38:                                               ; preds = %37
  br label %39

39:                                               ; preds = %38, %24
  br label %40

40:                                               ; preds = %39
  br label %41

41:                                               ; preds = %40
  br label %45

42:                                               ; preds = %14
  %43 = load ptr, ptr @jobslist, align 8
  %44 = load ptr, ptr %4, align 8
  call void @slurm_list_enqueue(ptr noundef %43, ptr noundef %44)
  br label %45

45:                                               ; preds = %42, %41
  br label %46

46:                                               ; preds = %45
  %47 = load ptr, ptr %5, align 8
  %48 = icmp ne ptr %47, null
  br i1 %48, label %49, label %51

49:                                               ; preds = %46
  %50 = load ptr, ptr %5, align 8
  call void @data_free(ptr noundef %50)
  br label %51

51:                                               ; preds = %49, %46
  store ptr null, ptr %5, align 8
  br label %52

52:                                               ; preds = %51
  br label %53

53:                                               ; preds = %52
  %54 = load i32, ptr %6, align 4
  store i32 %54, ptr %2, align 4
  store i32 1, ptr %7, align 4
  br label %55

55:                                               ; preds = %53, %11
  call void @llvm.lifetime.end.p0(i64 4, ptr %6) #8
  call void @llvm.lifetime.end.p0(i64 8, ptr %5) #8
  call void @llvm.lifetime.end.p0(i64 8, ptr %4) #8
  %56 = load i32, ptr %2, align 4
  ret i32 %56
}