; Function Attrs: nounwind uwtable
define dso_local i32 @jobcomp_p_log_record(ptr noundef %0) local_unnamed_addr #0 {
  %2 = alloca ptr, align 8
  call void @llvm.lifetime.start.p0(i64 8, ptr nonnull %2) #7
  %3 = load ptr, ptr @jobslist, align 8
  %4 = tail call i32 @slurm_list_count(ptr noundef %3) #7
  %5 = icmp sgt i32 %4, 1000000
  br i1 %5, label %6, label %8

6:                                                ; preds = %1
  %7 = tail call i32 (ptr, ...) @slurm_error(ptr noundef nonnull @.str.1, ptr noundef nonnull @plugin_type, i32 noundef 1000000, ptr noundef %0) #7
  br label %25

8:                                                ; preds = %1
  %9 = tail call ptr @jobcomp_common_job_record_to_data(ptr noundef %0) #7
  %10 = tail call ptr @slurm_xcalloc(i64 noundef 1, i64 noundef 16, i1 noundef zeroext true, i1 noundef zeroext false, ptr noundef nonnull @.str.2, i32 noundef 265, ptr noundef nonnull @__func__.jobcomp_p_log_record) #7
  store ptr %10, ptr %2, align 8
  %11 = getelementptr inbounds nuw i8, ptr %10, i64 8
  %12 = tail call i32 @slurm_serialize_g_data_to_string(ptr noundef nonnull %11, ptr noundef null, ptr noundef %9, ptr noundef nonnull @.str.3, i32 noundef 1) #7
  %.not = icmp eq i32 %12, 0
  br i1 %.not, label %21, label %13

13:                                               ; preds = %8
  call void @slurm_xfree(ptr noundef nonnull %2) #7
  %14 = load i64, ptr getelementptr inbounds nuw (i8, ptr @slurm_conf, i64 320), align 8
  %15 = and i64 %14, 70368744177664
  %.not10 = icmp eq i64 %15, 0
  br i1 %.not10, label %23, label %16

16:                                               ; preds = %13
  %17 = call i32 @slurm_get_log_level() #7
  %18 = icmp sgt i32 %17, 3
  br i1 %18, label %19, label %23

19:                                               ; preds = %16
  %20 = call ptr @slurm_strerror(i32 noundef %12) #7
  call void (i32, ptr, ...) @slurm_log_var(i32 noundef 4, ptr noundef nonnull @.str.4, ptr noundef nonnull @plugin_type, ptr noundef nonnull @__func__.jobcomp_p_log_record, ptr noundef %0, ptr noundef %20) #7
  br label %23

21:                                               ; preds = %8
  %22 = load ptr, ptr @jobslist, align 8
  tail call void @slurm_list_enqueue(ptr noundef %22, ptr noundef nonnull %10) #7
  br label %23

23:                                               ; preds = %21, %16, %19, %13
  %.not11 = icmp eq ptr %9, null
  br i1 %.not11, label %25, label %24

24:                                               ; preds = %23
  call void @data_free(ptr noundef nonnull %9) #7
  br label %25

25:                                               ; preds = %23, %24, %6
  %.0 = phi i32 [ -1, %6 ], [ %12, %24 ], [ %12, %23 ]
  call void @llvm.lifetime.end.p0(i64 8, ptr nonnull %2) #7
  ret i32 %.0
}